target datalayout = "e-m:e-p270:32:32-p271:32:32-p272:64:64-i64:64-i128:128-f80:128-n8:16:32:64-S128"
target triple = "x86_64-pc-linux-gnu"

%"class.nix::PosIdx" = type { i32 }
%"struct.nix::ExprBlackHole" = type { %"struct.nix::Expr" }
%"struct.nix::Expr" = type { ptr }
%"struct.nix::Value" = type { i32, %union.anon.43 }
%union.anon.43 = type { %"struct.nix::Value::StringWithContext" }
%"struct.nix::Value::StringWithContext" = type { ptr, ptr }
%"struct.nix::Value::ClosureThunk" = type { ptr, ptr }
%"struct.nix::Value::FunctionApplicationThunk" = type { ptr, ptr }

@_ZN3nix10eBlackHoleE = external global %"struct.nix::ExprBlackHole", align 8

; Function Attrs: mustprogress uwtable
define linkonce_odr void @_ZN3nix9EvalState12callFunctionERNS_5ValueES2_S2_NS_6PosIdxE(ptr noundef nonnull align 8 dereferenceable(1248) %0, ptr noundef nonnull align 8 dereferenceable(24) %1, ptr noundef nonnull align 8 dereferenceable(24) %2, ptr noundef nonnull align 8 dereferenceable(24) %3, i32 %4) #5 comdat align 2 {
  %6 = alloca %"class.nix::PosIdx", align 4
  %7 = alloca ptr, align 8
  %8 = alloca ptr, align 8
  %9 = alloca ptr, align 8
  %10 = alloca ptr, align 8
  %11 = alloca [1 x ptr], align 8
  %12 = alloca %"class.nix::PosIdx", align 4
  %13 = getelementptr inbounds %"class.nix::PosIdx", ptr %6, i32 0, i32 0
  store i32 %4, ptr %13, align 4
  store ptr %0, ptr %7, align 8
  store ptr %1, ptr %8, align 8
  store ptr %2, ptr %9, align 8
  store ptr %3, ptr %10, align 8
  %14 = load ptr, ptr %7, align 8
  %15 = getelementptr inbounds [1 x ptr], ptr %11, i64 0, i64 0
  %16 = load ptr, ptr %9, align 8
  store ptr %16, ptr %15, align 8
  %17 = load ptr, ptr %8, align 8
  %18 = getelementptr inbounds [1 x ptr], ptr %11, i64 0, i64 0
  %19 = load ptr, ptr %10, align 8
  call void @llvm.memcpy.p0.p0.i64(ptr align 4 %12, ptr align 4 %6, i64 4, i1 false)
  %20 = getelementptr inbounds %"class.nix::PosIdx", ptr %12, i32 0, i32 0
  %21 = load i32, ptr %20, align 4
  call void @_ZN3nix9EvalState12callFunctionERNS_5ValueEmPPS1_S2_NS_6PosIdxE(ptr noundef nonnull align 8 dereferenceable(1248) %14, ptr noundef nonnull align 8 dereferenceable(24) %17, i64 noundef 1, ptr noundef %18, ptr noundef nonnull align 8 dereferenceable(24) %19, i32 %21)
  ret void
}

; Function Attrs: mustprogress nounwind uwtable
define linkonce_odr noundef zeroext i1 @_ZNK3nix5Value5isAppEv(ptr noundef nonnull align 8 dereferenceable(24) %0) #2 comdat align 2 {
  %2 = alloca ptr, align 8
  store ptr %0, ptr %2, align 8
  %3 = load ptr, ptr %2, align 8
  %4 = getelementptr inbounds %"struct.nix::Value", ptr %3, i32 0, i32 0
  %5 = load i32, ptr %4, align 8
  %6 = icmp eq i32 %5, 11
  ret i1 %6
}

; Function Attrs: mustprogress nounwind uwtable
define linkonce_odr void @_ZN3nix5Value7mkThunkEPNS_3EnvEPNS_4ExprE(ptr noundef nonnull align 8 dereferenceable(24) %0, ptr noundef %1, ptr noundef %2) #2 comdat align 2 {
  %4 = alloca ptr, align 8
  %5 = alloca ptr, align 8
  %6 = alloca ptr, align 8
  store ptr %0, ptr %4, align 8
  store ptr %1, ptr %5, align 8
  store ptr %2, ptr %6, align 8
  %7 = load ptr, ptr %4, align 8
  %8 = getelementptr inbounds %"struct.nix::Value", ptr %7, i32 0, i32 0
  store i32 10, ptr %8, align 8
  %9 = load ptr, ptr %5, align 8
  %10 = getelementptr inbounds %"struct.nix::Value", ptr %7, i32 0, i32 1
  %11 = getelementptr inbounds %"struct.nix::Value::ClosureThunk", ptr %10, i32 0, i32 0
  store ptr %9, ptr %11, align 8
  %12 = load ptr, ptr %6, align 8
  %13 = getelementptr inbounds %"struct.nix::Value", ptr %7, i32 0, i32 1
  %14 = getelementptr inbounds %"struct.nix::Value::ClosureThunk", ptr %13, i32 0, i32 1
  store ptr %12, ptr %14, align 8
  ret void
}

; Function Attrs: mustprogress nounwind uwtable
define linkonce_odr void @_ZN3nix5Value11mkBlackholeEv(ptr noundef nonnull align 8 dereferenceable(24) %0) #2 comdat align 2 {
  %2 = alloca ptr, align 8
  store ptr %0, ptr %2, align 8
  %3 = load ptr, ptr %2, align 8
  %4 = getelementptr inbounds %"struct.nix::Value", ptr %3, i32 0, i32 0
  store i32 10, ptr %4, align 8
  %5 = getelementptr inbounds %"struct.nix::Value", ptr %3, i32 0, i32 1
  %6 = getelementptr inbounds %"struct.nix::Value::ClosureThunk", ptr %5, i32 0, i32 1
  store ptr @_ZN3nix10eBlackHoleE, ptr %6, align 8
  ret void
}

; Function Attrs: mustprogress nounwind uwtable
define linkonce_odr noundef zeroext i1 @_ZNK3nix5Value7isThunkEv(ptr noundef nonnull align 8 dereferenceable(24) %0) #2 comdat align 2 {
  %2 = alloca ptr, align 8
  store ptr %0, ptr %2, align 8
  %3 = load ptr, ptr %2, align 8
  %4 = getelementptr inbounds %"struct.nix::Value", ptr %3, i32 0, i32 0
  %5 = load i32, ptr %4, align 8
  %6 = icmp eq i32 %5, 10
  ret i1 %6
}

; Function Attrs: mustprogress uwtable
define internal void @_ZN3nix5flakeL17forceTrivialValueERNS_9EvalStateERNS_5ValueENS_6PosIdxE(ptr noundef nonnull align 8 dereferenceable(1248) %0, ptr noundef nonnull align 8 dereferenceable(24) %1, i32 %2) #5 personality ptr @__gxx_personality_v0 {
  %4 = alloca %"class.nix::PosIdx", align 4
  %5 = alloca ptr, align 8
  %6 = alloca ptr, align 8
  %7 = alloca ptr, align 8
  %8 = alloca ptr, align 8
  %9 = alloca ptr, align 8
  %10 = alloca i32, align 4
  %11 = alloca %"class.nix::PosIdx", align 4
  %12 = alloca %"class.nix::PosIdx", align 4
  %13 = alloca %"class.nix::PosIdx", align 4
  %14 = alloca ptr, align 8
  %15 = alloca ptr, align 8
  %16 = alloca %"class.nix::PosIdx", align 4
  %17 = getelementptr inbounds %"class.nix::PosIdx", ptr %13, i32 0, i32 0
  store i32 %2, ptr %17, align 4
  store ptr %0, ptr %14, align 8
  store ptr %1, ptr %15, align 8
  %18 = load ptr, ptr %15, align 8
  %19 = call noundef zeroext i1 @_ZNK3nix5Value7isThunkEv(ptr noundef nonnull align 8 dereferenceable(24) %18)
  br i1 %19, label %20, label %89

20:                                               ; preds = %3
  %21 = load ptr, ptr %15, align 8
  %22 = call noundef zeroext i1 @_ZNK3nix5Value9isTrivialEv(ptr noundef nonnull align 8 dereferenceable(24) %21)
  br i1 %22, label %23, label %89

23:                                               ; preds = %20
  %24 = load ptr, ptr %14, align 8
  %25 = load ptr, ptr %15, align 8
  call void @llvm.memcpy.p0.p0.i64(ptr align 4 %16, ptr align 4 %13, i64 4, i1 false)
  %26 = getelementptr inbounds %"class.nix::PosIdx", ptr %16, i32 0, i32 0
  %27 = load i32, ptr %26, align 4
  store i32 %27, ptr %4, align 4
  store ptr %24, ptr %5, align 8
  store ptr %25, ptr %6, align 8
  %28 = load ptr, ptr %5, align 8
  %29 = load ptr, ptr %6, align 8
  %30 = call noundef zeroext i1 @_ZNK3nix5Value7isThunkEv(ptr noundef nonnull align 8 dereferenceable(24) %29)
  br i1 %30, label %31, label %70

31:                                               ; preds = %23
  %32 = load ptr, ptr %6, align 8
  %33 = getelementptr inbounds %"struct.nix::Value", ptr %32, i32 0, i32 1
  %34 = load ptr, ptr %33, align 8
  store ptr %34, ptr %7, align 8
  %35 = load ptr, ptr %6, align 8
  %36 = getelementptr inbounds %"struct.nix::Value", ptr %35, i32 0, i32 1
  %37 = getelementptr inbounds %"struct.nix::Value::ClosureThunk", ptr %36, i32 0, i32 1
  %38 = load ptr, ptr %37, align 8
  store ptr %38, ptr %8, align 8
  %39 = load ptr, ptr %6, align 8
  invoke void @_ZN3nix5Value11mkBlackholeEv(ptr noundef nonnull align 8 dereferenceable(24) %39)
          to label %40 unwind label %48

40:                                               ; preds = %31
  %41 = load ptr, ptr %8, align 8
  %42 = load ptr, ptr %7, align 8
  %43 = load ptr, ptr %6, align 8
  %44 = load ptr, ptr %41, align 8
  %45 = getelementptr inbounds ptr, ptr %44, i64 4
  %46 = load ptr, ptr %45, align 8
  invoke void %46(ptr noundef nonnull align 8 dereferenceable(8) %41, ptr noundef nonnull align 8 dereferenceable(1248) %28, ptr noundef nonnull align 8 dereferenceable(8) %42, ptr noundef nonnull align 8 dereferenceable(24) %43)
          to label %47 unwind label %48

47:                                               ; preds = %40
  br label %88

48:                                               ; preds = %40, %31
  %49 = landingpad { ptr, i32 }
          catch ptr null
  %50 = extractvalue { ptr, i32 } %49, 0
  store ptr %50, ptr %9, align 8
  %51 = extractvalue { ptr, i32 } %49, 1
  store i32 %51, ptr %10, align 4
  %52 = load ptr, ptr %9, align 8
  %53 = call ptr @__cxa_begin_catch(ptr %52) #1
  %54 = load ptr, ptr %6, align 8
  %55 = load ptr, ptr %7, align 8
  %56 = load ptr, ptr %8, align 8
  invoke void @_ZN3nix5Value7mkThunkEPNS_3EnvEPNS_4ExprE(ptr noundef nonnull align 8 dereferenceable(24) %54, ptr noundef %55, ptr noundef %56)
          to label %57 unwind label %61

57:                                               ; preds = %48
  %58 = load ptr, ptr %6, align 8
  call void @llvm.memcpy.p0.p0.i64(ptr align 4 %11, ptr align 4 %4, i64 4, i1 false)
  %59 = load i32, ptr %11, align 4
  invoke void @_ZN3nix9EvalState20tryFixupBlackHolePosERNS_5ValueENS_6PosIdxE(ptr noundef nonnull align 8 dereferenceable(1248) %28, ptr noundef nonnull align 8 dereferenceable(24) %58, i32 %59)
          to label %60 unwind label %61

60:                                               ; preds = %57
  invoke void @__cxa_rethrow() #22
          to label %87 unwind label %61

61:                                               ; preds = %60, %57, %48
  %62 = landingpad { ptr, i32 }
          cleanup
  %63 = extractvalue { ptr, i32 } %62, 0
  store ptr %63, ptr %9, align 8
  %64 = extractvalue { ptr, i32 } %62, 1
  store i32 %64, ptr %10, align 4
  invoke void @__cxa_end_catch()
          to label %65 unwind label %84

65:                                               ; preds = %61
  %66 = load ptr, ptr %9, align 8
  %67 = load i32, ptr %10, align 4
  %68 = insertvalue { ptr, i32 } poison, ptr %66, 0
  %69 = insertvalue { ptr, i32 } %68, i32 %67, 1
  resume { ptr, i32 } %69

70:                                               ; preds = %23
  %71 = load ptr, ptr %6, align 8
  %72 = call noundef zeroext i1 @_ZNK3nix5Value5isAppEv(ptr noundef nonnull align 8 dereferenceable(24) %71)
  br i1 %72, label %73, label %83

73:                                               ; preds = %70
  %74 = load ptr, ptr %6, align 8
  %75 = getelementptr inbounds %"struct.nix::Value", ptr %74, i32 0, i32 1
  %76 = load ptr, ptr %75, align 8
  %77 = load ptr, ptr %6, align 8
  %78 = getelementptr inbounds %"struct.nix::Value", ptr %77, i32 0, i32 1
  %79 = getelementptr inbounds %"struct.nix::Value::FunctionApplicationThunk", ptr %78, i32 0, i32 1
  %80 = load ptr, ptr %79, align 8
  %81 = load ptr, ptr %6, align 8
  call void @llvm.memcpy.p0.p0.i64(ptr align 4 %12, ptr align 4 %4, i64 4, i1 false)
  %82 = load i32, ptr %12, align 4
  call void @_ZN3nix9EvalState12callFunctionERNS_5ValueES2_S2_NS_6PosIdxE(ptr noundef nonnull align 8 dereferenceable(1248) %28, ptr noundef nonnull align 8 dereferenceable(24) %76, ptr noundef nonnull align 8 dereferenceable(24) %80, ptr noundef nonnull align 8 dereferenceable(24) %81, i32 %82)
  br label %83

83:                                               ; preds = %73, %70
  br label %88

84:                                               ; preds = %61
  %85 = landingpad { ptr, i32 }
          catch ptr null
  %86 = extractvalue { ptr, i32 } %85, 0
  call void @__clang_call_terminate(ptr %86) #23
  unreachable

87:                                               ; preds = %60
  unreachable

88:                                               ; preds = %83, %47
  br label %89

89:                                               ; preds = %88, %20, %3
  ret void
}