; Function Attrs: mustprogress uwtable
define internal fastcc void @_ZN3nix5flakeL17forceTrivialValueERNS_9EvalStateERNS_5ValueENS_6PosIdxE(ptr noundef nonnull align 8 dereferenceable(1248) %0, ptr noundef nonnull align 8 dereferenceable(24) %1, i32 %2) unnamed_addr #4 personality ptr @__gxx_personality_v0 {
  %4 = alloca [1 x ptr], align 8
  %5 = load i32, ptr %1, align 8
  %6 = icmp eq i32 %5, 10
  br i1 %6, label %7, label %36

7:                                                ; preds = %3
  %8 = tail call noundef zeroext i1 @_ZNK3nix5Value9isTrivialEv(ptr noundef nonnull align 8 dereferenceable(24) %1)
  br i1 %8, label %9, label %36

9:                                                ; preds = %7
  %10 = load i32, ptr %1, align 8
  switch i32 %10, label %36 [
    i32 10, label %11
    i32 11, label %27
  ]

11:                                               ; preds = %9
  %12 = getelementptr inbounds i8, ptr %1, i64 8
  %13 = load ptr, ptr %12, align 8
  %14 = getelementptr inbounds i8, ptr %1, i64 16
  %15 = load ptr, ptr %14, align 8
  store i32 10, ptr %1, align 8
  store ptr @_ZN3nix10eBlackHoleE, ptr %14, align 8
  %16 = load ptr, ptr %15, align 8
  %17 = getelementptr inbounds i8, ptr %16, i64 32
  %18 = load ptr, ptr %17, align 8
  invoke void %18(ptr noundef nonnull align 8 dereferenceable(8) %15, ptr noundef nonnull align 8 dereferenceable(1248) %0, ptr noundef nonnull align 8 dereferenceable(8) %13, ptr noundef nonnull align 8 dereferenceable(24) %1)
          to label %36 unwind label %19

19:                                               ; preds = %11
  %20 = landingpad { ptr, i32 }
          catch ptr null
  %21 = extractvalue { ptr, i32 } %20, 0
  %22 = tail call ptr @__cxa_begin_catch(ptr %21) #27
  store i32 10, ptr %1, align 8
  store ptr %13, ptr %12, align 8
  store ptr %15, ptr %14, align 8
  invoke void @_ZN3nix9EvalState20tryFixupBlackHolePosERNS_5ValueENS_6PosIdxE(ptr noundef nonnull align 8 dereferenceable(1248) %0, ptr noundef nonnull align 8 dereferenceable(24) %1, i32 %2)
          to label %23 unwind label %24

23:                                               ; preds = %19
  invoke void @__cxa_rethrow() #28
          to label %35 unwind label %24

24:                                               ; preds = %23, %19
  %25 = landingpad { ptr, i32 }
          cleanup
  invoke void @__cxa_end_catch()
          to label %26 unwind label %32

26:                                               ; preds = %24
  resume { ptr, i32 } %25

27:                                               ; preds = %9
  %28 = getelementptr inbounds i8, ptr %1, i64 8
  %29 = load ptr, ptr %28, align 8
  %30 = getelementptr inbounds i8, ptr %1, i64 16
  %31 = load ptr, ptr %30, align 8
  call void @llvm.lifetime.start.p0(i64 8, ptr nonnull %4)
  store ptr %31, ptr %4, align 8
  call void @_ZN3nix9EvalState12callFunctionERNS_5ValueEmPPS1_S2_NS_6PosIdxE(ptr noundef nonnull align 8 dereferenceable(1248) %0, ptr noundef nonnull align 8 dereferenceable(24) %29, i64 noundef 1, ptr noundef nonnull %4, ptr noundef nonnull align 8 dereferenceable(24) %1, i32 %2)
  call void @llvm.lifetime.end.p0(i64 8, ptr nonnull %4)
  br label %36

32:                                               ; preds = %24
  %33 = landingpad { ptr, i32 }
          catch ptr null
  %34 = extractvalue { ptr, i32 } %33, 0
  tail call void @__clang_call_terminate(ptr %34) #31
  unreachable

35:                                               ; preds = %23
  unreachable

36:                                               ; preds = %9, %11, %27, %7, %3
  ret void
}